target datalayout = "e-m:e-p270:32:32-p271:32:32-p272:64:64-i64:64-i128:128-f80:128-n8:16:32:64-S128"
target triple = "x86_64-pc-linux-gnu"

@hf_pfcp_nokia_l2tp_local_tunnel_id = internal global i32 0, align 4
@hf_pfcp_nokia_l2tp_remote_tunnel_id = internal global i32 0, align 4
@hf_pfcp_nokia_l2tp_local_session_id = internal global i32 0, align 4
@hf_pfcp_nokia_l2tp_remote_session_id = internal global i32 0, align 4
@hf_pfcp_nokia_l2tp_call_serial_num = internal global i32 0, align 4
@.str.2792 = private unnamed_addr constant [42 x i8] c" : LTID %u LSID %u RTID %u RSID %u CSN %u\00", align 1

; Function Attrs: null_pointer_is_valid sspstrong uwtable
define internal i32 @dissect_pfcp_nokia_l2tp_ids(ptr noundef %0, ptr noundef %1, ptr noundef %2, ptr noundef %3) #0 {
  %5 = alloca ptr, align 8
  %6 = alloca ptr, align 8
  %7 = alloca ptr, align 8
  %8 = alloca ptr, align 8
  %9 = alloca i32, align 4
  %10 = alloca i32, align 4
  %11 = alloca i32, align 4
  %12 = alloca i32, align 4
  %13 = alloca i32, align 4
  store ptr %0, ptr %5, align 8
  store ptr %1, ptr %6, align 8
  store ptr %2, ptr %7, align 8
  store ptr %3, ptr %8, align 8
  call void @llvm.lifetime.start.p0(i64 4, ptr %9) #13
  call void @llvm.lifetime.start.p0(i64 4, ptr %10) #13
  call void @llvm.lifetime.start.p0(i64 4, ptr %11) #13
  call void @llvm.lifetime.start.p0(i64 4, ptr %12) #13
  call void @llvm.lifetime.start.p0(i64 4, ptr %13) #13
  %14 = load ptr, ptr %7, align 8
  %15 = load i32, ptr @hf_pfcp_nokia_l2tp_local_tunnel_id, align 4
  %16 = load ptr, ptr %5, align 8
  %17 = call ptr @proto_tree_add_item_ret_uint(ptr noundef %14, i32 noundef %15, ptr noundef %16, i32 noundef 0, i32 noundef 2, i32 noundef 0, ptr noundef %9)
  %18 = load ptr, ptr %7, align 8
  %19 = load i32, ptr @hf_pfcp_nokia_l2tp_remote_tunnel_id, align 4
  %20 = load ptr, ptr %5, align 8
  %21 = call ptr @proto_tree_add_item_ret_uint(ptr noundef %18, i32 noundef %19, ptr noundef %20, i32 noundef 2, i32 noundef 2, i32 noundef 0, ptr noundef %10)
  %22 = load ptr, ptr %7, align 8
  %23 = load i32, ptr @hf_pfcp_nokia_l2tp_local_session_id, align 4
  %24 = load ptr, ptr %5, align 8
  %25 = call ptr @proto_tree_add_item_ret_uint(ptr noundef %22, i32 noundef %23, ptr noundef %24, i32 noundef 4, i32 noundef 2, i32 noundef 0, ptr noundef %11)
  %26 = load ptr, ptr %7, align 8
  %27 = load i32, ptr @hf_pfcp_nokia_l2tp_remote_session_id, align 4
  %28 = load ptr, ptr %5, align 8
  %29 = call ptr @proto_tree_add_item_ret_uint(ptr noundef %26, i32 noundef %27, ptr noundef %28, i32 noundef 6, i32 noundef 2, i32 noundef 0, ptr noundef %12)
  %30 = load ptr, ptr %7, align 8
  %31 = load i32, ptr @hf_pfcp_nokia_l2tp_call_serial_num, align 4
  %32 = load ptr, ptr %5, align 8
  %33 = call ptr @proto_tree_add_item_ret_uint(ptr noundef %30, i32 noundef %31, ptr noundef %32, i32 noundef 8, i32 noundef 4, i32 noundef 0, ptr noundef %13)
  %34 = load ptr, ptr %7, align 8
  %35 = call ptr @proto_tree_get_parent(ptr noundef %34)
  %36 = load i32, ptr %9, align 4
  %37 = load i32, ptr %11, align 4
  %38 = load i32, ptr %10, align 4
  %39 = load i32, ptr %12, align 4
  %40 = load i32, ptr %13, align 4
  call void (ptr, ptr, ...) @proto_item_append_text(ptr noundef %35, ptr noundef @.str.2792, i32 noundef %36, i32 noundef %37, i32 noundef %38, i32 noundef %39, i32 noundef %40)
  call void @llvm.lifetime.end.p0(i64 4, ptr %13) #13
  call void @llvm.lifetime.end.p0(i64 4, ptr %12) #13
  call void @llvm.lifetime.end.p0(i64 4, ptr %11) #13
  call void @llvm.lifetime.end.p0(i64 4, ptr %10) #13
  call void @llvm.lifetime.end.p0(i64 4, ptr %9) #13
  ret i32 12
}