; Function Attrs: null_pointer_is_valid sspstrong uwtable
define internal noundef i32 @dissect_pfcp_nokia_l2tp_ids(ptr noundef %0, ptr readnone captures(none) %1, ptr noundef %2, ptr readnone captures(none) %3) #0 {
  %5 = alloca i32, align 4
  %6 = alloca i32, align 4
  %7 = alloca i32, align 4
  %8 = alloca i32, align 4
  %9 = alloca i32, align 4
  call void @llvm.lifetime.start.p0(i64 4, ptr nonnull %5) #15
  call void @llvm.lifetime.start.p0(i64 4, ptr nonnull %6) #15
  call void @llvm.lifetime.start.p0(i64 4, ptr nonnull %7) #15
  call void @llvm.lifetime.start.p0(i64 4, ptr nonnull %8) #15
  call void @llvm.lifetime.start.p0(i64 4, ptr nonnull %9) #15
  %10 = load i32, ptr @hf_pfcp_nokia_l2tp_local_tunnel_id, align 4
  %11 = call ptr @proto_tree_add_item_ret_uint(ptr noundef %2, i32 noundef %10, ptr noundef %0, i32 noundef 0, i32 noundef 2, i32 noundef 0, ptr noundef nonnull %5)
  %12 = load i32, ptr @hf_pfcp_nokia_l2tp_remote_tunnel_id, align 4
  %13 = call ptr @proto_tree_add_item_ret_uint(ptr noundef %2, i32 noundef %12, ptr noundef %0, i32 noundef 2, i32 noundef 2, i32 noundef 0, ptr noundef nonnull %6)
  %14 = load i32, ptr @hf_pfcp_nokia_l2tp_local_session_id, align 4
  %15 = call ptr @proto_tree_add_item_ret_uint(ptr noundef %2, i32 noundef %14, ptr noundef %0, i32 noundef 4, i32 noundef 2, i32 noundef 0, ptr noundef nonnull %7)
  %16 = load i32, ptr @hf_pfcp_nokia_l2tp_remote_session_id, align 4
  %17 = call ptr @proto_tree_add_item_ret_uint(ptr noundef %2, i32 noundef %16, ptr noundef %0, i32 noundef 6, i32 noundef 2, i32 noundef 0, ptr noundef nonnull %8)
  %18 = load i32, ptr @hf_pfcp_nokia_l2tp_call_serial_num, align 4
  %19 = call ptr @proto_tree_add_item_ret_uint(ptr noundef %2, i32 noundef %18, ptr noundef %0, i32 noundef 8, i32 noundef 4, i32 noundef 0, ptr noundef nonnull %9)
  %20 = call ptr @proto_tree_get_parent(ptr noundef %2)
  %21 = load i32, ptr %5, align 4
  %22 = load i32, ptr %7, align 4
  %23 = load i32, ptr %6, align 4
  %24 = load i32, ptr %8, align 4
  %25 = load i32, ptr %9, align 4
  call void (ptr, ptr, ...) @proto_item_append_text(ptr noundef %20, ptr noundef nonnull @.str.2792, i32 noundef %21, i32 noundef %22, i32 noundef %23, i32 noundef %24, i32 noundef %25)
  call void @llvm.lifetime.end.p0(i64 4, ptr nonnull %9) #15
  call void @llvm.lifetime.end.p0(i64 4, ptr nonnull %8) #15
  call void @llvm.lifetime.end.p0(i64 4, ptr nonnull %7) #15
  call void @llvm.lifetime.end.p0(i64 4, ptr nonnull %6) #15
  call void @llvm.lifetime.end.p0(i64 4, ptr nonnull %5) #15
  ret i32 12
}